; Function Attrs: mustprogress nofree norecurse nosync nounwind willreturn memory(argmem: readwrite) uwtable
define internal void @_ZN12_GLOBAL__N_122InlineCostCallAnalyzer24onDisableLoadEliminationEv(ptr noundef nonnull align 8 captures(none) dereferenceable(768) %0) unnamed_addr #12 align 2 {
  %2 = getelementptr inbounds nuw i8, ptr %0, i64 596
  %3 = load i32, ptr %2, align 4
  %4 = getelementptr inbounds nuw i8, ptr %0, i64 652
  %5 = load i32, ptr %4, align 4
  %6 = tail call i32 @llvm.sadd.sat.i32(i32 %3, i32 %5)
  store i32 %6, ptr %4, align 4
  store i32 0, ptr %2, align 4
  ret void
}